; Function Attrs: mustprogress uwtable
define noundef nonnull align 8 dereferenceable(64) ptr @_ZNK6icu_7513TimeZoneNames14getDisplayNameERKNS_13UnicodeStringE17UTimeZoneNameTypedRS1_(ptr noundef nonnull align 8 dereferenceable(8) %this, ptr noundef nonnull align 8 dereferenceable(64) %tzID, i32 noundef %type, double noundef %date, ptr noundef nonnull returned align 8 dereferenceable(64) %name) unnamed_addr #1 align 2 personality ptr @__gxx_personality_v0 {
entry:
  %mzIDBuf = alloca [32 x i16], align 16
  %mzID = alloca %"class.icu_75::UnicodeString", align 8
  %vtable = load ptr, ptr %this, align 8
  %vfn = getelementptr inbounds i8, ptr %vtable, i64 80
  %0 = load ptr, ptr %vfn, align 8
  %call = tail call noundef nonnull align 8 dereferenceable(64) ptr %0(ptr noundef nonnull align 8 dereferenceable(8) %this, ptr noundef nonnull align 8 dereferenceable(64) %tzID, i32 noundef %type, ptr noundef nonnull align 8 dereferenceable(64) %name)
  %fUnion.i = getelementptr inbounds i8, ptr %name, i64 8
  %1 = load i16, ptr %fUnion.i, align 8
  %cmp.i = icmp ugt i16 %1, 31
  br i1 %cmp.i, label %if.end, label %if.then

if.then:                                          ; preds = %entry
  call void @_ZN6icu_7513UnicodeStringC1EPDsii(ptr noundef nonnull align 8 dereferenceable(64) %mzID, ptr noundef nonnull %mzIDBuf, i32 noundef 0, i32 noundef 32)
  %vtable3 = load ptr, ptr %this, align 8
  %vfn4 = getelementptr inbounds i8, ptr %vtable3, i64 56
  %2 = load ptr, ptr %vfn4, align 8
  %call5 = invoke noundef nonnull align 8 dereferenceable(64) ptr %2(ptr noundef nonnull align 8 dereferenceable(8) %this, ptr noundef nonnull align 8 dereferenceable(64) %tzID, double noundef %date, ptr noundef nonnull align 8 dereferenceable(64) %mzID)
          to label %invoke.cont unwind label %lpad

invoke.cont:                                      ; preds = %if.then
  %vtable6 = load ptr, ptr %this, align 8
  %vfn7 = getelementptr inbounds i8, ptr %vtable6, i64 72
  %3 = load ptr, ptr %vfn7, align 8
  %call9 = invoke noundef nonnull align 8 dereferenceable(64) ptr %3(ptr noundef nonnull align 8 dereferenceable(8) %this, ptr noundef nonnull align 8 dereferenceable(64) %mzID, i32 noundef %type, ptr noundef nonnull align 8 dereferenceable(64) %name)
          to label %invoke.cont8 unwind label %lpad

invoke.cont8:                                     ; preds = %invoke.cont
  call void @_ZN6icu_7513UnicodeStringD1Ev(ptr noundef nonnull align 8 dereferenceable(64) %mzID) #17
  br label %if.end

lpad:                                             ; preds = %invoke.cont, %if.then
  %4 = landingpad { ptr, i32 }
          cleanup
  call void @_ZN6icu_7513UnicodeStringD1Ev(ptr noundef nonnull align 8 dereferenceable(64) %mzID) #17
  resume { ptr, i32 } %4

if.end:                                           ; preds = %invoke.cont8, %entry
  ret ptr %name
}